target datalayout = "e-m:e-p270:32:32-p271:32:32-p272:64:64-i64:64-i128:128-f80:128-n8:16:32:64-S128"
target triple = "x86_64-pc-linux-gnu"

%struct.H5FL_reg_head_t = type { i8, i32, i32, ptr, i64, ptr }
%struct.H5MF_free_section_t = type { %struct.H5FS_section_info_t }
%struct.H5FS_section_info_t = type { i64, i64, i32, i32 }

@H5_H5MF_free_section_t_reg_free_list = internal global %struct.H5FL_reg_head_t { i8 0, i32 0, i32 0, ptr @.str.2, i64 24, ptr null }, align 8
@.str = private unnamed_addr constant [105 x i8] c"generated/home/dtcxzyw/WorkSpace/Projects/compilers/llvm-opt-benchmark/bench/hdf5/hdf5/src/H5MFsection.c\00", align 1
@__func__.H5MF__sect_new = private unnamed_addr constant [15 x i8] c"H5MF__sect_new\00", align 1
@H5E_RESOURCE_g = external global i64, align 8
@H5E_NOSPACE_g = external global i64, align 8
@.str.1 = private unnamed_addr constant [60 x i8] c"memory allocation failed for direct block free list section\00", align 1
@H5E_CANTALLOC_g = external global i64, align 8
@.str.3 = private unnamed_addr constant [36 x i8] c"can't initialize free space section\00", align 1
@__func__.H5MF__sect_split = private unnamed_addr constant [17 x i8] c"H5MF__sect_split\00", align 1

; Function Attrs: nounwind uwtable
define ptr @H5MF__sect_new(i32 noundef %0, i64 noundef %1, i64 noundef %2) #0 {
  %4 = alloca i32, align 4
  %5 = alloca i64, align 8
  %6 = alloca i64, align 8
  %7 = alloca ptr, align 8
  %8 = alloca ptr, align 8
  %9 = alloca i8, align 1
  store i32 %0, ptr %4, align 4
  store i64 %1, ptr %5, align 8
  store i64 %2, ptr %6, align 8
  store ptr null, ptr %8, align 8
  store i8 0, ptr %9, align 1
  %10 = call noalias ptr @H5FL_reg_malloc(ptr noundef @H5_H5MF_free_section_t_reg_free_list)
  store ptr %10, ptr %7, align 8
  %11 = icmp eq ptr null, %10
  br i1 %11, label %12, label %27

12:                                               ; preds = %3
  br label %13

13:                                               ; preds = %12
  br label %14

14:                                               ; preds = %13
  br label %15

15:                                               ; preds = %14
  %16 = load i64, ptr @H5E_RESOURCE_g, align 8
  %17 = load i64, ptr @H5E_NOSPACE_g, align 8
  %18 = call i32 (ptr, ptr, i32, i64, i64, ptr, ...) @H5E_printf_stack(ptr noundef @.str, ptr noundef @__func__.H5MF__sect_new, i32 noundef 196, i64 noundef %16, i64 noundef %17, ptr noundef @.str.1)
  br label %19

19:                                               ; preds = %15
  store i8 1, ptr %9, align 1
  %20 = load i8, ptr %9, align 1
  %21 = trunc i8 %20 to i1
  %22 = zext i1 %21 to i8
  store i8 %22, ptr %9, align 1
  br label %23

23:                                               ; preds = %19
  br label %24

24:                                               ; preds = %23
  store ptr null, ptr %8, align 8
  br label %44

25:                                               ; No predecessors!
  br label %26

26:                                               ; preds = %25
  br label %27

27:                                               ; preds = %26, %3
  %28 = load i64, ptr %5, align 8
  %29 = load ptr, ptr %7, align 8
  %30 = getelementptr inbounds %struct.H5MF_free_section_t, ptr %29, i32 0, i32 0
  %31 = getelementptr inbounds %struct.H5FS_section_info_t, ptr %30, i32 0, i32 0
  store i64 %28, ptr %31, align 8
  %32 = load i64, ptr %6, align 8
  %33 = load ptr, ptr %7, align 8
  %34 = getelementptr inbounds %struct.H5MF_free_section_t, ptr %33, i32 0, i32 0
  %35 = getelementptr inbounds %struct.H5FS_section_info_t, ptr %34, i32 0, i32 1
  store i64 %32, ptr %35, align 8
  %36 = load i32, ptr %4, align 4
  %37 = load ptr, ptr %7, align 8
  %38 = getelementptr inbounds %struct.H5MF_free_section_t, ptr %37, i32 0, i32 0
  %39 = getelementptr inbounds %struct.H5FS_section_info_t, ptr %38, i32 0, i32 2
  store i32 %36, ptr %39, align 8
  %40 = load ptr, ptr %7, align 8
  %41 = getelementptr inbounds %struct.H5MF_free_section_t, ptr %40, i32 0, i32 0
  %42 = getelementptr inbounds %struct.H5FS_section_info_t, ptr %41, i32 0, i32 3
  store i32 0, ptr %42, align 4
  %43 = load ptr, ptr %7, align 8
  store ptr %43, ptr %8, align 8
  br label %44

44:                                               ; preds = %27, %24
  %45 = load ptr, ptr %8, align 8
  ret ptr %45
}

; Function Attrs: nounwind uwtable
define internal ptr @H5MF__sect_split(ptr noundef %0, i64 noundef %1) #0 {
  %3 = alloca ptr, align 8
  %4 = alloca i64, align 8
  %5 = alloca ptr, align 8
  %6 = alloca i8, align 1
  store ptr %0, ptr %3, align 8
  store i64 %1, ptr %4, align 8
  store ptr null, ptr %5, align 8
  store i8 0, ptr %6, align 1
  %7 = load ptr, ptr %3, align 8
  %8 = getelementptr inbounds %struct.H5FS_section_info_t, ptr %7, i32 0, i32 2
  %9 = load i32, ptr %8, align 8
  %10 = load ptr, ptr %3, align 8
  %11 = getelementptr inbounds %struct.H5FS_section_info_t, ptr %10, i32 0, i32 0
  %12 = load i64, ptr %11, align 8
  %13 = load i64, ptr %4, align 8
  %14 = call ptr @H5MF__sect_new(i32 noundef %9, i64 noundef %12, i64 noundef %13)
  store ptr %14, ptr %5, align 8
  %15 = icmp eq ptr null, %14
  br i1 %15, label %16, label %31

16:                                               ; preds = %2
  br label %17

17:                                               ; preds = %16
  br label %18

18:                                               ; preds = %17
  br label %19

19:                                               ; preds = %18
  %20 = load i64, ptr @H5E_RESOURCE_g, align 8
  %21 = load i64, ptr @H5E_CANTALLOC_g, align 8
  %22 = call i32 (ptr, ptr, i32, i64, i64, ptr, ...) @H5E_printf_stack(ptr noundef @.str, ptr noundef @__func__.H5MF__sect_split, i32 noundef 323, i64 noundef %20, i64 noundef %21, ptr noundef @.str.3)
  br label %23

23:                                               ; preds = %19
  store i8 1, ptr %6, align 1
  %24 = load i8, ptr %6, align 1
  %25 = trunc i8 %24 to i1
  %26 = zext i1 %25 to i8
  store i8 %26, ptr %6, align 1
  br label %27

27:                                               ; preds = %23
  br label %28

28:                                               ; preds = %27
  store ptr null, ptr %5, align 8
  br label %42

29:                                               ; No predecessors!
  br label %30

30:                                               ; preds = %29
  br label %31

31:                                               ; preds = %30, %2
  %32 = load i64, ptr %4, align 8
  %33 = load ptr, ptr %3, align 8
  %34 = getelementptr inbounds %struct.H5FS_section_info_t, ptr %33, i32 0, i32 0
  %35 = load i64, ptr %34, align 8
  %36 = add i64 %35, %32
  store i64 %36, ptr %34, align 8
  %37 = load i64, ptr %4, align 8
  %38 = load ptr, ptr %3, align 8
  %39 = getelementptr inbounds %struct.H5FS_section_info_t, ptr %38, i32 0, i32 1
  %40 = load i64, ptr %39, align 8
  %41 = sub i64 %40, %37
  store i64 %41, ptr %39, align 8
  br label %42

42:                                               ; preds = %31, %28
  %43 = load ptr, ptr %5, align 8
  ret ptr %43
}