; Function Attrs: nounwind uwtable
define internal noalias ptr @H5MF__sect_split(ptr nocapture noundef %0, i64 noundef %1) #0 {
  %3 = getelementptr inbounds i8, ptr %0, i64 16
  %4 = load i32, ptr %3, align 8
  %5 = load i64, ptr %0, align 8
  %6 = tail call noalias ptr @H5FL_reg_malloc(ptr noundef nonnull @H5_H5MF_free_section_t_reg_free_list) #5
  %7 = icmp eq ptr %6, null
  br i1 %7, label %8, label %15

8:                                                ; preds = %2
  %9 = load i64, ptr @H5E_RESOURCE_g, align 8
  %10 = load i64, ptr @H5E_NOSPACE_g, align 8
  %11 = tail call i32 (ptr, ptr, i32, i64, i64, ptr, ...) @H5E_printf_stack(ptr noundef nonnull @.str, ptr noundef nonnull @__func__.H5MF__sect_new, i32 noundef 196, i64 noundef %9, i64 noundef %10, ptr noundef nonnull @.str.1) #5
  %12 = load i64, ptr @H5E_RESOURCE_g, align 8
  %13 = load i64, ptr @H5E_CANTALLOC_g, align 8
  %14 = tail call i32 (ptr, ptr, i32, i64, i64, ptr, ...) @H5E_printf_stack(ptr noundef nonnull @.str, ptr noundef nonnull @__func__.H5MF__sect_split, i32 noundef 323, i64 noundef %12, i64 noundef %13, ptr noundef nonnull @.str.3) #5
  br label %24

15:                                               ; preds = %2
  store i64 %5, ptr %6, align 8
  %16 = getelementptr inbounds i8, ptr %6, i64 8
  store i64 %1, ptr %16, align 8
  %17 = getelementptr inbounds i8, ptr %6, i64 16
  store i32 %4, ptr %17, align 8
  %18 = getelementptr inbounds i8, ptr %6, i64 20
  store i32 0, ptr %18, align 4
  %19 = load i64, ptr %0, align 8
  %20 = add i64 %19, %1
  store i64 %20, ptr %0, align 8
  %21 = getelementptr inbounds i8, ptr %0, i64 8
  %22 = load i64, ptr %21, align 8
  %23 = sub i64 %22, %1
  store i64 %23, ptr %21, align 8
  br label %24

24:                                               ; preds = %15, %8
  ret ptr %6
}